; ModuleID = '22/359.c'
source_filename = "22/359.c"
target datalayout = "e-m:e-p270:32:32-p271:32:32-p272:64:64-i64:64-f80:128-n8:16:32:64-S128"
target triple = "x86_64-pc-linux-gnu"

@.str = private unnamed_addr constant [3 x i8] c"No\00", align 1
@.str.1 = private unnamed_addr constant [3 x i8] c"%d\00", align 1

; Function Attrs: noinline nounwind uwtable
define dso_local void @main() #0 {
  %1 = alloca i8, align 1
  %2 = alloca i32, align 4
  %3 = alloca i32, align 4
  %4 = alloca i32, align 4
  %5 = alloca i32, align 4
  %6 = alloca [300 x i32], align 16
  %7 = alloca i32, align 4
  %8 = alloca i32, align 4
  store i32 0, i32* %2, align 4
  store i32 0, i32* %4, align 4
  br label %9

9:                                                ; preds = %33, %0
  %10 = call i32 @getchar()
  %11 = trunc i32 %10 to i8
  store i8 %11, i8* %1, align 1
  %12 = sext i8 %11 to i32
  %13 = icmp ne i32 %12, 10
  br i1 %13, label %14, label %34

14:                                               ; preds = %9
  %15 = load i8, i8* %1, align 1
  %16 = sext i8 %15 to i32
  %17 = icmp eq i32 %16, 44
  br i1 %17, label %18, label %25

18:                                               ; preds = %14
  %19 = load i32, i32* %4, align 4
  %20 = load i32, i32* %2, align 4
  %21 = sext i32 %20 to i64
  %22 = getelementptr inbounds [300 x i32], [300 x i32]* %6, i64 0, i64 %21
  store i32 %19, i32* %22, align 4
  %23 = load i32, i32* %2, align 4
  %24 = add nsw i32 %23, 1
  store i32 %24, i32* %2, align 4
  store i32 0, i32* %4, align 4
  br label %33

25:                                               ; preds = %14
  %26 = load i8, i8* %1, align 1
  %27 = sext i8 %26 to i32
  %28 = sub nsw i32 %27, 48
  store i32 %28, i32* %5, align 4
  %29 = load i32, i32* %4, align 4
  %30 = mul nsw i32 %29, 10
  %31 = load i32, i32* %5, align 4
  %32 = add nsw i32 %30, %31
  store i32 %32, i32* %4, align 4
  br label %33

33:                                               ; preds = %25, %18
  br label %9

34:                                               ; preds = %9
  %35 = load i32, i32* %4, align 4
  %36 = load i32, i32* %2, align 4
  %37 = sext i32 %36 to i64
  %38 = getelementptr inbounds [300 x i32], [300 x i32]* %6, i64 0, i64 %37
  store i32 %35, i32* %38, align 4
  %39 = load i32, i32* %2, align 4
  %40 = icmp eq i32 %39, 1
  br i1 %40, label %41, label %43

41:                                               ; preds = %34
  %42 = call i32 (i8*, ...) @printf(i8* getelementptr inbounds ([3 x i8], [3 x i8]* @.str, i64 0, i64 0))
  br label %102

43:                                               ; preds = %34
  %44 = getelementptr inbounds [300 x i32], [300 x i32]* %6, i64 0, i64 0
  %45 = load i32, i32* %44, align 16
  store i32 %45, i32* %7, align 4
  store i32 -1, i32* %8, align 4
  store i32 1, i32* %3, align 4
  br label %46

46:                                               ; preds = %86, %43
  %47 = load i32, i32* %3, align 4
  %48 = load i32, i32* %2, align 4
  %49 = icmp sle i32 %47, %48
  br i1 %49, label %50, label %89

50:                                               ; preds = %46
  %51 = load i32, i32* %3, align 4
  %52 = sext i32 %51 to i64
  %53 = getelementptr inbounds [300 x i32], [300 x i32]* %6, i64 0, i64 %52
  %54 = load i32, i32* %53, align 4
  %55 = load i32, i32* %7, align 4
  %56 = icmp sgt i32 %54, %55
  br i1 %56, label %57, label %63

57:                                               ; preds = %50
  %58 = load i32, i32* %7, align 4
  store i32 %58, i32* %8, align 4
  %59 = load i32, i32* %3, align 4
  %60 = sext i32 %59 to i64
  %61 = getelementptr inbounds [300 x i32], [300 x i32]* %6, i64 0, i64 %60
  %62 = load i32, i32* %61, align 4
  store i32 %62, i32* %7, align 4
  br label %85

63:                                               ; preds = %50
  %64 = load i32, i32* %3, align 4
  %65 = sext i32 %64 to i64
  %66 = getelementptr inbounds [300 x i32], [300 x i32]* %6, i64 0, i64 %65
  %67 = load i32, i32* %66, align 4
  %68 = load i32, i32* %7, align 4
  %69 = icmp eq i32 %67, %68
  br i1 %69, label %70, label %71

70:                                               ; preds = %63
  br label %86

71:                                               ; preds = %63
  %72 = load i32, i32* %3, align 4
  %73 = sext i32 %72 to i64
  %74 = getelementptr inbounds [300 x i32], [300 x i32]* %6, i64 0, i64 %73
  %75 = load i32, i32* %74, align 4
  %76 = load i32, i32* %8, align 4
  %77 = icmp sgt i32 %75, %76
  br i1 %77, label %78, label %83

78:                                               ; preds = %71
  %79 = load i32, i32* %3, align 4
  %80 = sext i32 %79 to i64
  %81 = getelementptr inbounds [300 x i32], [300 x i32]* %6, i64 0, i64 %80
  %82 = load i32, i32* %81, align 4
  store i32 %82, i32* %8, align 4
  br label %83

83:                                               ; preds = %78, %71
  br label %84

84:                                               ; preds = %83
  br label %85

85:                                               ; preds = %84, %57
  br label %86

86:                                               ; preds = %85, %70
  %87 = load i32, i32* %3, align 4
  %88 = add nsw i32 %87, 1
  store i32 %88, i32* %3, align 4
  br label %46

89:                                               ; preds = %46
  %90 = load i32, i32* %7, align 4
  %91 = load i32, i32* %8, align 4
  %92 = icmp eq i32 %90, %91
  br i1 %92, label %96, label %93

93:                                               ; preds = %89
  %94 = load i32, i32* %8, align 4
  %95 = icmp eq i32 %94, -1
  br i1 %95, label %96, label %98

96:                                               ; preds = %93, %89
  %97 = call i32 (i8*, ...) @printf(i8* getelementptr inbounds ([3 x i8], [3 x i8]* @.str, i64 0, i64 0))
  br label %101

98:                                               ; preds = %93
  %99 = load i32, i32* %8, align 4
  %100 = call i32 (i8*, ...) @printf(i8* getelementptr inbounds ([3 x i8], [3 x i8]* @.str.1, i64 0, i64 0), i32 %99)
  br label %101

101:                                              ; preds = %98, %96
  br label %102

102:                                              ; preds = %101, %41
  ret void
}

declare dso_local i32 @getchar() #1

declare dso_local i32 @printf(i8*, ...) #1


!llvm.module.flags = !{!0}
!llvm.ident = !{!1}

!0 = !{i32 1, !"wchar_size", i32 4}
!1 = !{!"clang version 10.0.0-4ubuntu1 "}
